target datalayout = "e-m:e-p270:32:32-p271:32:32-p272:64:64-i64:64-i128:128-f80:128-n8:16:32:64-S128"
target triple = "x86_64-pc-linux-gnu"

%struct.pm_lex_mode = type { i32, %union.anon, ptr }
%union.anon = type { %struct.anon.3 }
%struct.anon.3 = type { %struct.pm_heredoc_lex_mode_t, ptr, ptr, i8 }
%struct.pm_heredoc_lex_mode_t = type { ptr, i64, i32, i32 }
%struct.pm_parser = type { i32, i32, i32, i32, i32, i32, i32, %struct.anon, ptr, ptr, %struct.pm_token_t, %struct.pm_token_t, ptr, ptr, %struct.pm_list_t, %struct.pm_list_t, %struct.pm_location_t, %struct.pm_list_t, %struct.pm_list_t, ptr, ptr, ptr, ptr, ptr, ptr, ptr, %struct.pm_string_t, %struct.pm_constant_pool_t, %struct.pm_newline_list_t, i16, %struct.pm_string_t, i32, ptr, ptr, i32, i8, i8, i8, i8, i8, i8, i8, i8, i8, i8, i8, i8, i8 }
%struct.anon = type { ptr, [4 x %struct.pm_lex_mode], i64 }
%struct.pm_token_t = type { i32, ptr, ptr }
%struct.pm_location_t = type { ptr, ptr }
%struct.pm_list_t = type { i64, ptr, ptr }
%struct.pm_constant_pool_t = type { ptr, ptr, i32, i32 }
%struct.pm_newline_list_t = type { ptr, i64, i64, ptr }
%struct.pm_string_t = type { ptr, i64, i32 }
%struct.pm_node_list = type { i64, i64, ptr }
%struct.pm_statements_node = type { %struct.pm_node, %struct.pm_node_list }
%struct.pm_node = type { i16, i16, i32, %struct.pm_location_t }
%struct.pm_else_node = type { %struct.pm_node, %struct.pm_location_t, ptr, %struct.pm_location_t }

@stderr = external global ptr, align 8
@.str.94 = private unnamed_addr constant [29 x i8] c"Failed to allocate %d bytes\0A\00", align 1

; Function Attrs: inlinehint nounwind sspstrong uwtable
define internal ptr @pm_node_alloc(ptr noundef %0, i64 noundef %1) #7 {
  %3 = alloca ptr, align 8
  %4 = alloca i64, align 8
  %5 = alloca ptr, align 8
  store ptr %0, ptr %3, align 8, !tbaa !7
  store i64 %1, ptr %4, align 8, !tbaa !14
  call void @llvm.lifetime.start.p0(i64 8, ptr %5) #15
  %6 = load i64, ptr %4, align 8, !tbaa !14
  %7 = call noalias ptr @calloc(i64 noundef 1, i64 noundef %6) #18
  store ptr %7, ptr %5, align 8, !tbaa !57
  %8 = load ptr, ptr %5, align 8, !tbaa !57
  %9 = icmp eq ptr %8, null
  br i1 %9, label %10, label %15

10:                                               ; preds = %2
  %11 = load ptr, ptr @stderr, align 8, !tbaa !452
  %12 = load i64, ptr %4, align 8, !tbaa !14
  %13 = trunc i64 %12 to i32
  %14 = call i32 (ptr, i32, ptr, ...) @__fprintf_chk(ptr noundef %11, i32 noundef 1, ptr noundef @.str.94, i32 noundef %13)
  call void @abort() #19
  unreachable

15:                                               ; preds = %2
  %16 = load ptr, ptr %5, align 8, !tbaa !57
  call void @llvm.lifetime.end.p0(i64 8, ptr %5) #15
  ret ptr %16
}

; Function Attrs: nounwind sspstrong uwtable
define internal ptr @pm_else_node_create(ptr noundef %0, ptr noundef %1, ptr noundef %2, ptr noundef %3) #0 {
  %5 = alloca ptr, align 8
  %6 = alloca ptr, align 8
  %7 = alloca ptr, align 8
  %8 = alloca ptr, align 8
  %9 = alloca ptr, align 8
  %10 = alloca ptr, align 8
  %11 = alloca %struct.pm_else_node, align 8
  store ptr %0, ptr %5, align 8, !tbaa !7
  store ptr %1, ptr %6, align 8, !tbaa !57
  store ptr %2, ptr %7, align 8, !tbaa !122
  store ptr %3, ptr %8, align 8, !tbaa !57
  call void @llvm.lifetime.start.p0(i64 8, ptr %9) #15
  %12 = load ptr, ptr %5, align 8, !tbaa !7
  %13 = call ptr @pm_node_alloc(ptr noundef %12, i64 noundef 64)
  store ptr %13, ptr %9, align 8, !tbaa !397
  call void @llvm.lifetime.start.p0(i64 8, ptr %10) #15
  store ptr null, ptr %10, align 8, !tbaa !12
  %14 = load ptr, ptr %8, align 8, !tbaa !57
  %15 = getelementptr inbounds nuw %struct.pm_token_t, ptr %14, i32 0, i32 0
  %16 = load i32, ptr %15, align 8, !tbaa !42
  %17 = icmp eq i32 %16, 3
  br i1 %17, label %18, label %27

18:                                               ; preds = %4
  %19 = load ptr, ptr %7, align 8, !tbaa !122
  %20 = icmp ne ptr %19, null
  br i1 %20, label %21, label %27

21:                                               ; preds = %18
  %22 = load ptr, ptr %7, align 8, !tbaa !122
  %23 = getelementptr inbounds nuw %struct.pm_statements_node, ptr %22, i32 0, i32 0
  %24 = getelementptr inbounds nuw %struct.pm_node, ptr %23, i32 0, i32 3
  %25 = getelementptr inbounds nuw %struct.pm_location_t, ptr %24, i32 0, i32 1
  %26 = load ptr, ptr %25, align 8, !tbaa !245
  store ptr %26, ptr %10, align 8, !tbaa !12
  br label %31

27:                                               ; preds = %18, %4
  %28 = load ptr, ptr %8, align 8, !tbaa !57
  %29 = getelementptr inbounds nuw %struct.pm_token_t, ptr %28, i32 0, i32 2
  %30 = load ptr, ptr %29, align 8, !tbaa !44
  store ptr %30, ptr %10, align 8, !tbaa !12
  br label %31

31:                                               ; preds = %27, %21
  %32 = load ptr, ptr %9, align 8, !tbaa !397
  %33 = getelementptr inbounds nuw %struct.pm_else_node, ptr %11, i32 0, i32 0
  %34 = getelementptr inbounds nuw %struct.pm_node, ptr %33, i32 0, i32 0
  store i16 47, ptr %34, align 8, !tbaa !206
  %35 = getelementptr inbounds nuw %struct.pm_node, ptr %33, i32 0, i32 1
  store i16 0, ptr %35, align 2, !tbaa !222
  %36 = getelementptr inbounds nuw %struct.pm_node, ptr %33, i32 0, i32 2
  %37 = load ptr, ptr %5, align 8, !tbaa !7
  %38 = getelementptr inbounds nuw %struct.pm_parser, ptr %37, i32 0, i32 0
  %39 = load i32, ptr %38, align 8, !tbaa !238
  %40 = add i32 %39, 1
  store i32 %40, ptr %38, align 8, !tbaa !238
  store i32 %40, ptr %36, align 4, !tbaa !239
  %41 = getelementptr inbounds nuw %struct.pm_node, ptr %33, i32 0, i32 3
  %42 = getelementptr inbounds nuw %struct.pm_location_t, ptr %41, i32 0, i32 0
  %43 = load ptr, ptr %6, align 8, !tbaa !57
  %44 = getelementptr inbounds nuw %struct.pm_token_t, ptr %43, i32 0, i32 1
  %45 = load ptr, ptr %44, align 8, !tbaa !43
  store ptr %45, ptr %42, align 8, !tbaa !152
  %46 = getelementptr inbounds nuw %struct.pm_location_t, ptr %41, i32 0, i32 1
  %47 = load ptr, ptr %10, align 8, !tbaa !12
  store ptr %47, ptr %46, align 8, !tbaa !153
  %48 = getelementptr inbounds nuw %struct.pm_else_node, ptr %11, i32 0, i32 1
  %49 = getelementptr inbounds nuw %struct.pm_location_t, ptr %48, i32 0, i32 0
  %50 = load ptr, ptr %6, align 8, !tbaa !57
  %51 = getelementptr inbounds nuw %struct.pm_token_t, ptr %50, i32 0, i32 1
  %52 = load ptr, ptr %51, align 8, !tbaa !43
  store ptr %52, ptr %49, align 8, !tbaa !152
  %53 = getelementptr inbounds nuw %struct.pm_location_t, ptr %48, i32 0, i32 1
  %54 = load ptr, ptr %6, align 8, !tbaa !57
  %55 = getelementptr inbounds nuw %struct.pm_token_t, ptr %54, i32 0, i32 2
  %56 = load ptr, ptr %55, align 8, !tbaa !44
  store ptr %56, ptr %53, align 8, !tbaa !153
  %57 = getelementptr inbounds nuw %struct.pm_else_node, ptr %11, i32 0, i32 2
  %58 = load ptr, ptr %7, align 8, !tbaa !122
  store ptr %58, ptr %57, align 8, !tbaa !614
  %59 = getelementptr inbounds nuw %struct.pm_else_node, ptr %11, i32 0, i32 3
  %60 = load ptr, ptr %8, align 8, !tbaa !57
  %61 = getelementptr inbounds nuw %struct.pm_token_t, ptr %60, i32 0, i32 0
  %62 = load i32, ptr %61, align 8, !tbaa !42
  %63 = icmp eq i32 %62, 3
  br i1 %63, label %64, label %67

64:                                               ; preds = %31
  %65 = getelementptr inbounds nuw %struct.pm_location_t, ptr %59, i32 0, i32 0
  store ptr null, ptr %65, align 8, !tbaa !152
  %66 = getelementptr inbounds nuw %struct.pm_location_t, ptr %59, i32 0, i32 1
  store ptr null, ptr %66, align 8, !tbaa !153
  br label %76

67:                                               ; preds = %31
  %68 = getelementptr inbounds nuw %struct.pm_location_t, ptr %59, i32 0, i32 0
  %69 = load ptr, ptr %8, align 8, !tbaa !57
  %70 = getelementptr inbounds nuw %struct.pm_token_t, ptr %69, i32 0, i32 1
  %71 = load ptr, ptr %70, align 8, !tbaa !43
  store ptr %71, ptr %68, align 8, !tbaa !152
  %72 = getelementptr inbounds nuw %struct.pm_location_t, ptr %59, i32 0, i32 1
  %73 = load ptr, ptr %8, align 8, !tbaa !57
  %74 = getelementptr inbounds nuw %struct.pm_token_t, ptr %73, i32 0, i32 2
  %75 = load ptr, ptr %74, align 8, !tbaa !44
  store ptr %75, ptr %72, align 8, !tbaa !153
  br label %76

76:                                               ; preds = %67, %64
  call void @llvm.memcpy.p0.p0.i64(ptr align 8 %32, ptr align 8 %11, i64 64, i1 false), !tbaa.struct !616
  %77 = load ptr, ptr %9, align 8, !tbaa !397
  call void @llvm.lifetime.end.p0(i64 8, ptr %10) #15
  call void @llvm.lifetime.end.p0(i64 8, ptr %9) #15
  ret ptr %77
}