; Function Attrs: nounwind sspstrong uwtable
define internal fastcc noalias nonnull ptr @pm_else_node_create(ptr noundef captures(none) %0, ptr noundef nonnull readonly captures(none) %1, ptr noundef %2, ptr noundef readonly captures(none) %3) unnamed_addr #1 {
  %5 = tail call noalias dereferenceable_or_null(64) ptr @calloc(i64 noundef 1, i64 noundef 64) #34
  %6 = icmp eq ptr %5, null
  br i1 %6, label %7, label %pm_node_alloc.exit

7:                                                ; preds = %4
  %8 = load ptr, ptr @stderr, align 8, !tbaa !105
  %9 = tail call i32 (ptr, i32, ptr, ...) @__fprintf_chk(ptr noundef %8, i32 noundef 1, ptr noundef nonnull @.str.94, i32 noundef 64) #31
  tail call void @abort() #35
  unreachable

pm_node_alloc.exit:                               ; preds = %4
  %10 = load i32, ptr %3, align 8, !tbaa !124
  %11 = icmp eq i32 %10, 3
  %12 = icmp ne ptr %2, null
  %or.cond = and i1 %12, %11
  %. = select i1 %or.cond, ptr %2, ptr %3
  %.0.in = getelementptr inbounds nuw i8, ptr %., i64 16
  %.0 = load ptr, ptr %.0.in, align 8, !tbaa !14
  %13 = load i32, ptr %0, align 8, !tbaa !107
  %14 = add i32 %13, 1
  store i32 %14, ptr %0, align 8, !tbaa !107
  %15 = getelementptr inbounds nuw i8, ptr %1, i64 8
  %16 = load ptr, ptr %15, align 8, !tbaa !125
  %17 = getelementptr inbounds nuw i8, ptr %1, i64 16
  %18 = load ptr, ptr %17, align 8, !tbaa !126
  br i1 %11, label %24, label %19

19:                                               ; preds = %pm_node_alloc.exit
  %20 = getelementptr inbounds nuw i8, ptr %3, i64 8
  %21 = load ptr, ptr %20, align 8, !tbaa !125
  %22 = getelementptr inbounds nuw i8, ptr %3, i64 16
  %23 = load ptr, ptr %22, align 8, !tbaa !126
  br label %24

24:                                               ; preds = %pm_node_alloc.exit, %19
  %.sroa.9.0 = phi ptr [ %21, %19 ], [ null, %pm_node_alloc.exit ]
  %.sroa.11.0 = phi ptr [ %23, %19 ], [ null, %pm_node_alloc.exit ]
  store i16 47, ptr %5, align 8, !tbaa !108
  %.sroa.3.0..sroa_idx = getelementptr inbounds nuw i8, ptr %5, i64 4
  store i32 %14, ptr %.sroa.3.0..sroa_idx, align 4, !tbaa !7
  %.sroa.4.0..sroa_idx = getelementptr inbounds nuw i8, ptr %5, i64 8
  store ptr %16, ptr %.sroa.4.0..sroa_idx, align 8, !tbaa !14
  %.sroa.5.0..sroa_idx = getelementptr inbounds nuw i8, ptr %5, i64 16
  store ptr %.0, ptr %.sroa.5.0..sroa_idx, align 8, !tbaa !14
  %.sroa.6.0..sroa_idx = getelementptr inbounds nuw i8, ptr %5, i64 24
  store ptr %16, ptr %.sroa.6.0..sroa_idx, align 8, !tbaa !14
  %.sroa.7.0..sroa_idx = getelementptr inbounds nuw i8, ptr %5, i64 32
  store ptr %18, ptr %.sroa.7.0..sroa_idx, align 8, !tbaa !14
  %.sroa.8.0..sroa_idx = getelementptr inbounds nuw i8, ptr %5, i64 40
  store ptr %2, ptr %.sroa.8.0..sroa_idx, align 8, !tbaa !134
  %.sroa.9.0..sroa_idx = getelementptr inbounds nuw i8, ptr %5, i64 48
  store ptr %.sroa.9.0, ptr %.sroa.9.0..sroa_idx, align 8, !tbaa !14
  %.sroa.11.0..sroa_idx = getelementptr inbounds nuw i8, ptr %5, i64 56
  store ptr %.sroa.11.0, ptr %.sroa.11.0..sroa_idx, align 8, !tbaa !14
  ret ptr %5
}